target datalayout = "e-m:e-p270:32:32-p271:32:32-p272:64:64-i64:64-i128:128-f80:128-n8:16:32:64-S128"
target triple = "x86_64-pc-linux-gnu"

@luai_ctype_ = external hidden constant [257 x i8], align 16

; Function Attrs: nounwind uwtable
define hidden zeroext i8 @luaO_hexavalue(i32 noundef %0) #0 {
  %2 = alloca i8, align 1
  %3 = alloca i32, align 4
  store i32 %0, ptr %3, align 4, !tbaa !4
  %4 = load i32, ptr %3, align 4, !tbaa !4
  %5 = add nsw i32 %4, 1
  %6 = sext i32 %5 to i64
  %7 = getelementptr inbounds [257 x i8], ptr @luai_ctype_, i64 0, i64 %6
  %8 = load i8, ptr %7, align 1, !tbaa !8
  %9 = zext i8 %8 to i32
  %10 = and i32 %9, 2
  %11 = icmp ne i32 %10, 0
  br i1 %11, label %12, label %16

12:                                               ; preds = %1
  %13 = load i32, ptr %3, align 4, !tbaa !4
  %14 = sub nsw i32 %13, 48
  %15 = trunc i32 %14 to i8
  store i8 %15, ptr %2, align 1
  br label %22

16:                                               ; preds = %1
  %17 = load i32, ptr %3, align 4, !tbaa !4
  %18 = or i32 %17, 32
  %19 = sub nsw i32 %18, 97
  %20 = add nsw i32 %19, 10
  %21 = trunc i32 %20 to i8
  store i8 %21, ptr %2, align 1
  br label %22

22:                                               ; preds = %16, %12
  %23 = load i8, ptr %2, align 1
  ret i8 %23
}