; Function Attrs: mustprogress nofree norecurse nosync nounwind willreturn memory(none) uwtable
define hidden zeroext i8 @luaO_hexavalue(i32 noundef %0) local_unnamed_addr #2 {
  %2 = add nsw i32 %0, 1
  %3 = sext i32 %2 to i64
  %4 = getelementptr inbounds [257 x i8], ptr @luai_ctype_, i64 0, i64 %3
  %5 = load i8, ptr %4, align 1, !tbaa !4
  %6 = and i8 %5, 2
  %.not = icmp eq i8 %6, 0
  %7 = trunc i32 %0 to i8
  %8 = add i8 %7, -48
  %9 = or i8 %7, 32
  %10 = add i8 %9, -87
  %.0 = select i1 %.not, i8 %10, i8 %8
  ret i8 %.0
}